target datalayout = "e-m:e-p270:32:32-p271:32:32-p272:64:64-i64:64-i128:128-f80:128-n8:16:32:64-S128"
target triple = "x86_64-pc-linux-gnu"

; Function Attrs: mustprogress uwtable
define noundef zeroext i1 @_ZN7rocksdb28PartitionedFilterBlockReader11KeyMayMatchERKNS_5SliceEPS2_PNS_10GetContextEPNS_23BlockCacheLookupContextERKNS_11ReadOptionsE(ptr noundef nonnull align 8 dereferenceable(120) %0, ptr noundef nonnull align 8 dereferenceable(16) %1, ptr noundef %2, ptr noundef %3, ptr noundef %4, ptr noundef nonnull align 8 dereferenceable(168) %5) unnamed_addr #6 align 2 {
  %7 = alloca i1, align 1
  %8 = alloca ptr, align 8
  %9 = alloca ptr, align 8
  %10 = alloca ptr, align 8
  %11 = alloca ptr, align 8
  %12 = alloca ptr, align 8
  %13 = alloca ptr, align 8
  %14 = alloca { i64, i64 }, align 8
  store ptr %0, ptr %8, align 8, !tbaa !153
  store ptr %1, ptr %9, align 8, !tbaa !10
  store ptr %2, ptr %10, align 8, !tbaa !10
  store ptr %3, ptr %11, align 8, !tbaa !186
  store ptr %4, ptr %12, align 8, !tbaa !176
  store ptr %5, ptr %13, align 8, !tbaa !172
  %15 = load ptr, ptr %8, align 8
  %16 = call noundef zeroext i1 @_ZNK7rocksdb23FilterBlockReaderCommonINS_27Block_kFilterPartitionIndexEE19whole_key_filteringEv(ptr noundef nonnull align 8 dereferenceable(57) %15)
  br i1 %16, label %18, label %17

17:                                               ; preds = %6
  store i1 true, ptr %7, align 1
  br label %25

18:                                               ; preds = %6
  %19 = load ptr, ptr %9, align 8, !tbaa !10
  %20 = load ptr, ptr %10, align 8, !tbaa !10
  %21 = load ptr, ptr %11, align 8, !tbaa !186
  %22 = load ptr, ptr %12, align 8, !tbaa !176
  %23 = load ptr, ptr %13, align 8, !tbaa !172
  call void @llvm.lifetime.start.p0(i64 16, ptr %14) #5
  store { i64, i64 } { i64 17, i64 0 }, ptr %14, align 8, !tbaa !144
  %24 = call noundef zeroext i1 @_ZNK7rocksdb28PartitionedFilterBlockReader8MayMatchERKNS_5SliceEPS2_PNS_10GetContextEPNS_23BlockCacheLookupContextERKNS_11ReadOptionsEMNS_21FullFilterBlockReaderEFbS3_S4_S6_S8_SB_E(ptr noundef nonnull align 8 dereferenceable(120) %15, ptr noundef nonnull align 8 dereferenceable(16) %19, ptr noundef %20, ptr noundef %21, ptr noundef %22, ptr noundef nonnull align 8 dereferenceable(168) %23, ptr noundef byval({ i64, i64 }) align 8 %14)
  call void @llvm.lifetime.end.p0(i64 16, ptr %14) #5
  store i1 %24, ptr %7, align 1
  br label %25

25:                                               ; preds = %18, %17
  %26 = load i1, ptr %7, align 1
  ret i1 %26
}